target datalayout = "e-m:e-p270:32:32-p271:32:32-p272:64:64-i64:64-i128:128-f80:128-n8:16:32:64-S128"
target triple = "x86_64-pc-linux-gnu"

@.str.1 = private unnamed_addr constant [6 x i8] c"EMERG\00", align 1
@.str.2 = private unnamed_addr constant [6 x i8] c"ALERT\00", align 1
@.str.3 = private unnamed_addr constant [5 x i8] c"CRIT\00", align 1
@.str.4 = private unnamed_addr constant [6 x i8] c"error\00", align 1
@.str.5 = private unnamed_addr constant [8 x i8] c"warning\00", align 1
@.str.6 = private unnamed_addr constant [5 x i8] c"NOTE\00", align 1
@.str.7 = private unnamed_addr constant [5 x i8] c"info\00", align 1
@.str.8 = private unnamed_addr constant [6 x i8] c"DEBUG\00", align 1
@.str.9 = private unnamed_addr constant [16 x i8] c"(unknown level)\00", align 1
@.str.10 = private unnamed_addr constant [12 x i8] c"CMP %s: %s\0A\00", align 1

; Function Attrs: nounwind uwtable
define i32 @OSSL_CMP_print_to_bio(ptr noundef %0, ptr noundef %1, ptr noundef %2, i32 noundef %3, i32 noundef %4, ptr noundef %5) #0 {
  %7 = alloca ptr, align 8
  %8 = alloca ptr, align 8
  %9 = alloca ptr, align 8
  %10 = alloca i32, align 4
  %11 = alloca i32, align 4
  %12 = alloca ptr, align 8
  %13 = alloca ptr, align 8
  store ptr %0, ptr %7, align 8, !tbaa !17
  store ptr %1, ptr %8, align 8, !tbaa !3
  store ptr %2, ptr %9, align 8, !tbaa !3
  store i32 %3, ptr %10, align 4, !tbaa !12
  store i32 %4, ptr %11, align 4, !tbaa !12
  store ptr %5, ptr %12, align 8, !tbaa !3
  call void @llvm.lifetime.start.p0(i64 8, ptr %13) #7
  %14 = load i32, ptr %11, align 4, !tbaa !12
  %15 = icmp eq i32 %14, 0
  br i1 %15, label %16, label %17

16:                                               ; preds = %6
  br label %57

17:                                               ; preds = %6
  %18 = load i32, ptr %11, align 4, !tbaa !12
  %19 = icmp eq i32 %18, 1
  br i1 %19, label %20, label %21

20:                                               ; preds = %17
  br label %55

21:                                               ; preds = %17
  %22 = load i32, ptr %11, align 4, !tbaa !12
  %23 = icmp eq i32 %22, 2
  br i1 %23, label %24, label %25

24:                                               ; preds = %21
  br label %53

25:                                               ; preds = %21
  %26 = load i32, ptr %11, align 4, !tbaa !12
  %27 = icmp eq i32 %26, 3
  br i1 %27, label %28, label %29

28:                                               ; preds = %25
  br label %51

29:                                               ; preds = %25
  %30 = load i32, ptr %11, align 4, !tbaa !12
  %31 = icmp eq i32 %30, 4
  br i1 %31, label %32, label %33

32:                                               ; preds = %29
  br label %49

33:                                               ; preds = %29
  %34 = load i32, ptr %11, align 4, !tbaa !12
  %35 = icmp eq i32 %34, 5
  br i1 %35, label %36, label %37

36:                                               ; preds = %33
  br label %47

37:                                               ; preds = %33
  %38 = load i32, ptr %11, align 4, !tbaa !12
  %39 = icmp eq i32 %38, 6
  br i1 %39, label %40, label %41

40:                                               ; preds = %37
  br label %45

41:                                               ; preds = %37
  %42 = load i32, ptr %11, align 4, !tbaa !12
  %43 = icmp eq i32 %42, 7
  %44 = select i1 %43, ptr @.str.8, ptr @.str.9
  br label %45

45:                                               ; preds = %41, %40
  %46 = phi ptr [ @.str.7, %40 ], [ %44, %41 ]
  br label %47

47:                                               ; preds = %45, %36
  %48 = phi ptr [ @.str.6, %36 ], [ %46, %45 ]
  br label %49

49:                                               ; preds = %47, %32
  %50 = phi ptr [ @.str.5, %32 ], [ %48, %47 ]
  br label %51

51:                                               ; preds = %49, %28
  %52 = phi ptr [ @.str.4, %28 ], [ %50, %49 ]
  br label %53

53:                                               ; preds = %51, %24
  %54 = phi ptr [ @.str.3, %24 ], [ %52, %51 ]
  br label %55

55:                                               ; preds = %53, %20
  %56 = phi ptr [ @.str.2, %20 ], [ %54, %53 ]
  br label %57

57:                                               ; preds = %55, %16
  %58 = phi ptr [ @.str.1, %16 ], [ %56, %55 ]
  store ptr %58, ptr %13, align 8, !tbaa !3
  %59 = load ptr, ptr %7, align 8, !tbaa !17
  %60 = load ptr, ptr %13, align 8, !tbaa !3
  %61 = load ptr, ptr %12, align 8, !tbaa !3
  %62 = call i32 (ptr, ptr, ...) @BIO_printf(ptr noundef %59, ptr noundef @.str.10, ptr noundef %60, ptr noundef %61)
  %63 = icmp sge i32 %62, 0
  %64 = zext i1 %63 to i32
  call void @llvm.lifetime.end.p0(i64 8, ptr %13) #7
  ret i32 %64
}