; Function Attrs: nounwind uwtable
define range(i32 0, 2) i32 @OSSL_CMP_print_to_bio(ptr noundef %0, ptr noundef readnone captures(none) %1, ptr noundef readnone captures(none) %2, i32 noundef %3, i32 noundef %4, ptr noundef %5) local_unnamed_addr #1 {
  %7 = icmp ult i32 %4, 6
  br i1 %7, label %switch.lookup, label %8

8:                                                ; preds = %6
  %9 = icmp eq i32 %4, 6
  %10 = icmp eq i32 %4, 7
  %11 = select i1 %10, ptr @.str.8, ptr @.str.9
  %12 = select i1 %9, ptr @.str.7, ptr %11
  br label %14

switch.lookup:                                    ; preds = %6
  %13 = zext nneg i32 %4 to i64
  %switch.gep = getelementptr inbounds nuw [6 x ptr], ptr @switch.table.OSSL_CMP_print_to_bio, i64 0, i64 %13
  %switch.load = load ptr, ptr %switch.gep, align 8
  br label %14

14:                                               ; preds = %switch.lookup, %8
  %15 = phi ptr [ %12, %8 ], [ %switch.load, %switch.lookup ]
  %16 = tail call i32 (ptr, ptr, ...) @BIO_printf(ptr noundef %0, ptr noundef nonnull @.str.10, ptr noundef %15, ptr noundef %5) #7
  %17 = icmp sgt i32 %16, -1
  %18 = zext i1 %17 to i32
  ret i32 %18
}